target datalayout = "e-m:e-p270:32:32-p271:32:32-p272:64:64-i64:64-i128:128-f80:128-n8:16:32:64-S128"
target triple = "x86_64-pc-linux-gnu"

%struct.cbb_st = type { ptr, ptr, i64, i8, i8, i8 }
%struct.cbs_st = type { ptr, i64 }

@.str = private unnamed_addr constant [3 x i8] zeroinitializer, align 1

; Function Attrs: nounwind uwtable
define internal i32 @is_string_type(i32 noundef %0) #0 {
  %2 = alloca i32, align 4
  %3 = alloca i32, align 4
  store i32 %0, ptr %3, align 4, !tbaa !20
  %4 = load i32, ptr %3, align 4, !tbaa !20
  %5 = and i32 %4, 192
  %6 = icmp ne i32 %5, 0
  br i1 %6, label %7, label %8

7:                                                ; preds = %1
  store i32 0, ptr %2, align 4
  br label %13

8:                                                ; preds = %1
  %9 = load i32, ptr %3, align 4, !tbaa !20
  %10 = and i32 %9, 31
  switch i32 %10, label %12 [
    i32 3, label %11
    i32 4, label %11
    i32 12, label %11
    i32 18, label %11
    i32 19, label %11
    i32 20, label %11
    i32 21, label %11
    i32 22, label %11
    i32 25, label %11
    i32 26, label %11
    i32 27, label %11
    i32 28, label %11
    i32 30, label %11
  ]

11:                                               ; preds = %8, %8, %8, %8, %8, %8, %8, %8, %8, %8, %8, %8, %8
  store i32 1, ptr %2, align 4
  br label %13

12:                                               ; preds = %8
  store i32 0, ptr %2, align 4
  br label %13

13:                                               ; preds = %12, %11, %7
  %14 = load i32, ptr %2, align 4
  ret i32 %14
}

; Function Attrs: nounwind uwtable
define internal signext i8 @is_eoc(i64 noundef %0, ptr noundef %1) #0 {
  %3 = alloca i64, align 8
  %4 = alloca ptr, align 8
  store i64 %0, ptr %3, align 8, !tbaa !18
  store ptr %1, ptr %4, align 8, !tbaa !6
  %5 = load i64, ptr %3, align 8, !tbaa !18
  %6 = icmp eq i64 %5, 2
  br i1 %6, label %7, label %16

7:                                                ; preds = %2
  %8 = load ptr, ptr %4, align 8, !tbaa !6
  %9 = call i64 @CBS_len(ptr noundef %8)
  %10 = icmp eq i64 %9, 2
  br i1 %10, label %11, label %16

11:                                               ; preds = %7
  %12 = load ptr, ptr %4, align 8, !tbaa !6
  %13 = call ptr @CBS_data(ptr noundef %12)
  %14 = call i32 @memcmp(ptr noundef %13, ptr noundef @.str, i64 noundef 2) #5
  %15 = icmp eq i32 %14, 0
  br label %16

16:                                               ; preds = %11, %7, %2
  %17 = phi i1 [ false, %7 ], [ false, %2 ], [ %15, %11 ]
  %18 = zext i1 %17 to i32
  %19 = trunc i32 %18 to i8
  ret i8 %19
}

; Function Attrs: nounwind uwtable
define internal i32 @cbs_convert_ber(ptr noundef %0, ptr noundef %1, i32 noundef %2, i8 noundef signext %3, i32 noundef %4) #0 {
  %6 = alloca i32, align 4
  %7 = alloca ptr, align 8
  %8 = alloca ptr, align 8
  %9 = alloca i32, align 4
  %10 = alloca i8, align 1
  %11 = alloca i32, align 4
  %12 = alloca %struct.cbs_st, align 8
  %13 = alloca i32, align 4
  %14 = alloca i32, align 4
  %15 = alloca i64, align 8
  %16 = alloca ptr, align 8
  %17 = alloca %struct.cbb_st, align 8
  %18 = alloca i32, align 4
  %19 = alloca i32, align 4
  store ptr %0, ptr %7, align 8, !tbaa !6
  store ptr %1, ptr %8, align 8, !tbaa !24
  store i32 %2, ptr %9, align 4, !tbaa !20
  store i8 %3, ptr %10, align 1, !tbaa !15
  store i32 %4, ptr %11, align 4, !tbaa !20
  %20 = load i32, ptr %11, align 4, !tbaa !20
  %21 = icmp ugt i32 %20, 2048
  br i1 %21, label %22, label %23

22:                                               ; preds = %5
  store i32 0, ptr %6, align 4
  br label %145

23:                                               ; preds = %5
  br label %24

24:                                               ; preds = %139, %137, %23
  %25 = load ptr, ptr %7, align 8, !tbaa !6
  %26 = call i64 @CBS_len(ptr noundef %25)
  %27 = icmp ugt i64 %26, 0
  br i1 %27, label %28, label %140

28:                                               ; preds = %24
  call void @llvm.lifetime.start.p0(i64 16, ptr %12) #4
  call void @llvm.lifetime.start.p0(i64 4, ptr %13) #4
  call void @llvm.lifetime.start.p0(i64 4, ptr %14) #4
  %29 = load i32, ptr %9, align 4, !tbaa !20
  store i32 %29, ptr %14, align 4, !tbaa !20
  call void @llvm.lifetime.start.p0(i64 8, ptr %15) #4
  call void @llvm.lifetime.start.p0(i64 8, ptr %16) #4
  call void @llvm.lifetime.start.p0(i64 32, ptr %17) #4
  %30 = load ptr, ptr %7, align 8, !tbaa !6
  %31 = call i32 @CBS_get_any_ber_asn1_element(ptr noundef %30, ptr noundef %12, ptr noundef %13, ptr noundef %15)
  %32 = icmp ne i32 %31, 0
  br i1 %32, label %34, label %33

33:                                               ; preds = %28
  store i32 0, ptr %6, align 4
  store i32 1, ptr %18, align 4
  br label %137

34:                                               ; preds = %28
  %35 = load i64, ptr %15, align 8, !tbaa !18
  %36 = call signext i8 @is_eoc(i64 noundef %35, ptr noundef %12)
  %37 = icmp ne i8 %36, 0
  br i1 %37, label %38, label %41

38:                                               ; preds = %34
  %39 = load i8, ptr %10, align 1, !tbaa !15
  %40 = sext i8 %39 to i32
  store i32 %40, ptr %6, align 4
  store i32 1, ptr %18, align 4
  br label %137

41:                                               ; preds = %34
  %42 = load i32, ptr %9, align 4, !tbaa !20
  %43 = icmp ne i32 %42, 0
  br i1 %43, label %44, label %52

44:                                               ; preds = %41
  %45 = load i32, ptr %13, align 4, !tbaa !20
  %46 = and i32 %45, -33
  %47 = load i32, ptr %9, align 4, !tbaa !20
  %48 = icmp ne i32 %46, %47
  br i1 %48, label %49, label %50

49:                                               ; preds = %44
  store i32 0, ptr %6, align 4
  store i32 1, ptr %18, align 4
  br label %137

50:                                               ; preds = %44
  %51 = load ptr, ptr %8, align 8, !tbaa !24
  store ptr %51, ptr %16, align 8, !tbaa !24
  br label %76

52:                                               ; preds = %41
  call void @llvm.lifetime.start.p0(i64 4, ptr %19) #4
  %53 = load i32, ptr %13, align 4, !tbaa !20
  store i32 %53, ptr %19, align 4, !tbaa !20
  %54 = load i32, ptr %13, align 4, !tbaa !20
  %55 = and i32 %54, 32
  %56 = icmp ne i32 %55, 0
  br i1 %56, label %57, label %65

57:                                               ; preds = %52
  %58 = load i32, ptr %13, align 4, !tbaa !20
  %59 = call i32 @is_string_type(i32 noundef %58)
  %60 = icmp ne i32 %59, 0
  br i1 %60, label %61, label %65

61:                                               ; preds = %57
  %62 = load i32, ptr %19, align 4, !tbaa !20
  %63 = and i32 %62, -33
  store i32 %63, ptr %19, align 4, !tbaa !20
  %64 = load i32, ptr %19, align 4, !tbaa !20
  store i32 %64, ptr %14, align 4, !tbaa !20
  br label %65

65:                                               ; preds = %61, %57, %52
  %66 = load ptr, ptr %8, align 8, !tbaa !24
  %67 = load i32, ptr %19, align 4, !tbaa !20
  %68 = trunc i32 %67 to i8
  %69 = call i32 @CBB_add_asn1(ptr noundef %66, ptr noundef %17, i8 noundef zeroext %68)
  %70 = icmp ne i32 %69, 0
  br i1 %70, label %72, label %71

71:                                               ; preds = %65
  store i32 0, ptr %6, align 4
  store i32 1, ptr %18, align 4
  br label %73

72:                                               ; preds = %65
  store ptr %17, ptr %16, align 8, !tbaa !24
  store i32 0, ptr %18, align 4
  br label %73

73:                                               ; preds = %72, %71
  call void @llvm.lifetime.end.p0(i64 4, ptr %19) #4
  %74 = load i32, ptr %18, align 4
  switch i32 %74, label %137 [
    i32 0, label %75
  ]

75:                                               ; preds = %73
  br label %76

76:                                               ; preds = %75, %50
  %77 = call i64 @CBS_len(ptr noundef %12)
  %78 = load i64, ptr %15, align 8, !tbaa !18
  %79 = icmp eq i64 %77, %78
  br i1 %79, label %80, label %105

80:                                               ; preds = %76
  %81 = load i64, ptr %15, align 8, !tbaa !18
  %82 = icmp ugt i64 %81, 0
  br i1 %82, label %83, label %105

83:                                               ; preds = %80
  %84 = call ptr @CBS_data(ptr noundef %12)
  %85 = load i64, ptr %15, align 8, !tbaa !18
  %86 = sub i64 %85, 1
  %87 = getelementptr inbounds nuw i8, ptr %84, i64 %86
  %88 = load i8, ptr %87, align 1, !tbaa !15
  %89 = zext i8 %88 to i32
  %90 = icmp eq i32 %89, 128
  br i1 %90, label %91, label %105

91:                                               ; preds = %83
  %92 = load ptr, ptr %7, align 8, !tbaa !6
  %93 = load ptr, ptr %16, align 8, !tbaa !24
  %94 = load i32, ptr %14, align 4, !tbaa !20
  %95 = load i32, ptr %11, align 4, !tbaa !20
  %96 = add i32 %95, 1
  %97 = call i32 @cbs_convert_ber(ptr noundef %92, ptr noundef %93, i32 noundef %94, i8 noundef signext 1, i32 noundef %96)
  %98 = icmp ne i32 %97, 0
  br i1 %98, label %99, label %103

99:                                               ; preds = %91
  %100 = load ptr, ptr %8, align 8, !tbaa !24
  %101 = call i32 @CBB_flush(ptr noundef %100)
  %102 = icmp ne i32 %101, 0
  br i1 %102, label %104, label %103

103:                                              ; preds = %99, %91
  store i32 0, ptr %6, align 4
  store i32 1, ptr %18, align 4
  br label %137

104:                                              ; preds = %99
  store i32 2, ptr %18, align 4
  br label %137, !llvm.loop !26

105:                                              ; preds = %83, %80, %76
  %106 = load i64, ptr %15, align 8, !tbaa !18
  %107 = call i32 @CBS_skip(ptr noundef %12, i64 noundef %106)
  %108 = icmp ne i32 %107, 0
  br i1 %108, label %110, label %109

109:                                              ; preds = %105
  store i32 0, ptr %6, align 4
  store i32 1, ptr %18, align 4
  br label %137

110:                                              ; preds = %105
  %111 = load i32, ptr %13, align 4, !tbaa !20
  %112 = and i32 %111, 32
  %113 = icmp ne i32 %112, 0
  br i1 %113, label %114, label %123

114:                                              ; preds = %110
  %115 = load ptr, ptr %16, align 8, !tbaa !24
  %116 = load i32, ptr %14, align 4, !tbaa !20
  %117 = load i32, ptr %11, align 4, !tbaa !20
  %118 = add i32 %117, 1
  %119 = call i32 @cbs_convert_ber(ptr noundef %12, ptr noundef %115, i32 noundef %116, i8 noundef signext 0, i32 noundef %118)
  %120 = icmp ne i32 %119, 0
  br i1 %120, label %122, label %121

121:                                              ; preds = %114
  store i32 0, ptr %6, align 4
  store i32 1, ptr %18, align 4
  br label %137

122:                                              ; preds = %114
  br label %131

123:                                              ; preds = %110
  %124 = load ptr, ptr %16, align 8, !tbaa !24
  %125 = call ptr @CBS_data(ptr noundef %12)
  %126 = call i64 @CBS_len(ptr noundef %12)
  %127 = call i32 @CBB_add_bytes(ptr noundef %124, ptr noundef %125, i64 noundef %126)
  %128 = icmp ne i32 %127, 0
  br i1 %128, label %130, label %129

129:                                              ; preds = %123
  store i32 0, ptr %6, align 4
  store i32 1, ptr %18, align 4
  br label %137

130:                                              ; preds = %123
  br label %131

131:                                              ; preds = %130, %122
  %132 = load ptr, ptr %8, align 8, !tbaa !24
  %133 = call i32 @CBB_flush(ptr noundef %132)
  %134 = icmp ne i32 %133, 0
  br i1 %134, label %136, label %135

135:                                              ; preds = %131
  store i32 0, ptr %6, align 4
  store i32 1, ptr %18, align 4
  br label %137

136:                                              ; preds = %131
  store i32 0, ptr %18, align 4
  br label %137

137:                                              ; preds = %136, %135, %129, %121, %109, %104, %103, %73, %49, %38, %33
  call void @llvm.lifetime.end.p0(i64 32, ptr %17) #4
  call void @llvm.lifetime.end.p0(i64 8, ptr %16) #4
  call void @llvm.lifetime.end.p0(i64 8, ptr %15) #4
  call void @llvm.lifetime.end.p0(i64 4, ptr %14) #4
  call void @llvm.lifetime.end.p0(i64 4, ptr %13) #4
  call void @llvm.lifetime.end.p0(i64 16, ptr %12) #4
  %138 = load i32, ptr %18, align 4
  switch i32 %138, label %147 [
    i32 0, label %139
    i32 1, label %145
    i32 2, label %24
  ]

139:                                              ; preds = %137
  br label %24, !llvm.loop !26

140:                                              ; preds = %24
  %141 = load i8, ptr %10, align 1, !tbaa !15
  %142 = sext i8 %141 to i32
  %143 = icmp eq i32 %142, 0
  %144 = zext i1 %143 to i32
  store i32 %144, ptr %6, align 4
  br label %145

145:                                              ; preds = %140, %137, %22
  %146 = load i32, ptr %6, align 4
  ret i32 %146

147:                                              ; preds = %137
  unreachable
}