; Function Attrs: nounwind uwtable
define internal fastcc range(i32 0, 256) i32 @cbs_convert_ber(ptr noundef %0, ptr noundef %1, i32 noundef range(i32 0, -32) %2, i8 noundef signext range(i8 0, 2) %3, i32 noundef %4) unnamed_addr #0 {
  %6 = alloca %struct.cbs_st, align 8
  %7 = alloca i32, align 4
  %8 = alloca i64, align 8
  %9 = alloca %struct.cbb_st, align 8
  %10 = icmp ugt i32 %4, 2048
  br i1 %10, label %.loopexit, label %.preheader

.preheader:                                       ; preds = %5
  %.not39 = icmp eq i32 %2, 0
  %11 = add nuw nsw i32 %4, 1
  br label %12

12:                                               ; preds = %.preheader, %63
  %13 = call i64 @CBS_len(ptr noundef %0) #4
  %.not = icmp eq i64 %13, 0
  br i1 %.not, label %65, label %14

14:                                               ; preds = %12
  call void @llvm.lifetime.start.p0(i64 16, ptr nonnull %6) #4
  call void @llvm.lifetime.start.p0(i64 4, ptr nonnull %7) #4
  call void @llvm.lifetime.start.p0(i64 8, ptr nonnull %8) #4
  call void @llvm.lifetime.start.p0(i64 32, ptr nonnull %9) #4
  %15 = call i32 @CBS_get_any_ber_asn1_element(ptr noundef %0, ptr noundef nonnull %6, ptr noundef nonnull %7, ptr noundef nonnull %8) #4
  %.not37 = icmp eq i32 %15, 0
  br i1 %.not37, label %.thread, label %16

16:                                               ; preds = %14
  %17 = load i64, ptr %8, align 8, !tbaa !12
  %18 = icmp eq i64 %17, 2
  br i1 %18, label %19, label %is_eoc.exit.thread

19:                                               ; preds = %16
  %20 = call i64 @CBS_len(ptr noundef nonnull %6) #4
  %21 = icmp eq i64 %20, 2
  br i1 %21, label %is_eoc.exit, label %is_eoc.exit.thread

is_eoc.exit:                                      ; preds = %19
  %22 = call ptr @CBS_data(ptr noundef nonnull %6) #4
  %bcmp.i = call i32 @bcmp(ptr noundef nonnull dereferenceable(2) %22, ptr noundef nonnull dereferenceable(2) @.str, i64 2)
  %.not60 = icmp eq i32 %bcmp.i, 0
  br i1 %.not60, label %23, label %is_eoc.exit.thread

23:                                               ; preds = %is_eoc.exit
  %24 = zext nneg i8 %3 to i32
  br label %.thread

is_eoc.exit.thread:                               ; preds = %16, %19, %is_eoc.exit
  %25 = load i32, ptr %7, align 4, !tbaa !14
  br i1 %.not39, label %28, label %26

26:                                               ; preds = %is_eoc.exit.thread
  %27 = and i32 %25, -33
  %.not43 = icmp eq i32 %27, %2
  br i1 %.not43, label %37, label %.thread

28:                                               ; preds = %is_eoc.exit.thread
  %29 = and i32 %25, 224
  %or.cond66 = icmp eq i32 %29, 32
  br i1 %or.cond66, label %30, label %34

30:                                               ; preds = %28
  %31 = and i32 %25, 31
  switch i32 %31, label %34 [
    i32 3, label %32
    i32 4, label %32
    i32 12, label %32
    i32 18, label %32
    i32 19, label %32
    i32 20, label %32
    i32 21, label %32
    i32 22, label %32
    i32 25, label %32
    i32 26, label %32
    i32 27, label %32
    i32 28, label %32
    i32 30, label %32
  ]

32:                                               ; preds = %30, %30, %30, %30, %30, %30, %30, %30, %30, %30, %30, %30, %30
  %33 = and i32 %25, -225
  br label %34

34:                                               ; preds = %30, %32, %28
  %.130 = phi i32 [ 0, %28 ], [ %33, %32 ], [ 0, %30 ]
  %.0 = phi i32 [ %25, %28 ], [ %33, %32 ], [ %25, %30 ]
  %35 = trunc i32 %.0 to i8
  %36 = call i32 @CBB_add_asn1(ptr noundef %1, ptr noundef nonnull %9, i8 noundef zeroext %35) #4
  %.not42.not = icmp eq i32 %36, 0
  br i1 %.not42.not, label %.thread, label %37

37:                                               ; preds = %26, %34
  %.029 = phi i32 [ %.130, %34 ], [ %2, %26 ]
  %.2 = phi ptr [ %9, %34 ], [ %1, %26 ]
  %38 = call i64 @CBS_len(ptr noundef nonnull %6) #4
  %39 = load i64, ptr %8, align 8, !tbaa !12
  %40 = icmp eq i64 %38, %39
  %41 = icmp ne i64 %39, 0
  %or.cond = and i1 %40, %41
  br i1 %or.cond, label %42, label %51

42:                                               ; preds = %37
  %43 = call ptr @CBS_data(ptr noundef nonnull %6) #4
  %44 = load i64, ptr %8, align 8, !tbaa !12
  %45 = getelementptr i8, ptr %43, i64 %44
  %46 = getelementptr i8, ptr %45, i64 -1
  %47 = load i8, ptr %46, align 1, !tbaa !6
  %48 = icmp eq i8 %47, -128
  br i1 %48, label %49, label %51

49:                                               ; preds = %42
  %50 = call fastcc i32 @cbs_convert_ber(ptr noundef %0, ptr noundef %.2, i32 noundef %.029, i8 noundef signext 1, i32 noundef %11)
  %.not49 = icmp eq i32 %50, 0
  br i1 %.not49, label %.thread, label %63

51:                                               ; preds = %42, %37
  %52 = phi i64 [ %44, %42 ], [ %39, %37 ]
  %53 = call i32 @CBS_skip(ptr noundef nonnull %6, i64 noundef %52) #4
  %.not44 = icmp eq i32 %53, 0
  br i1 %.not44, label %.thread, label %54

54:                                               ; preds = %51
  %55 = load i32, ptr %7, align 4, !tbaa !14
  %56 = and i32 %55, 32
  %.not45 = icmp eq i32 %56, 0
  br i1 %.not45, label %59, label %57

57:                                               ; preds = %54
  %58 = call fastcc i32 @cbs_convert_ber(ptr noundef nonnull %6, ptr noundef %.2, i32 noundef %.029, i8 noundef signext 0, i32 noundef %11)
  %.not47 = icmp eq i32 %58, 0
  br i1 %.not47, label %.thread, label %63

59:                                               ; preds = %54
  %60 = call ptr @CBS_data(ptr noundef nonnull %6) #4
  %61 = call i64 @CBS_len(ptr noundef nonnull %6) #4
  %62 = call i32 @CBB_add_bytes(ptr noundef %.2, ptr noundef %60, i64 noundef %61) #4
  %.not46 = icmp eq i32 %62, 0
  br i1 %.not46, label %.thread, label %63

.thread:                                          ; preds = %34, %14, %26, %49, %51, %57, %59, %23
  %.233.ph = phi i32 [ %24, %23 ], [ 0, %59 ], [ 0, %57 ], [ 0, %51 ], [ 0, %49 ], [ 0, %26 ], [ 0, %14 ], [ 0, %34 ]
  call void @llvm.lifetime.end.p0(i64 32, ptr nonnull %9) #4
  call void @llvm.lifetime.end.p0(i64 8, ptr nonnull %8) #4
  call void @llvm.lifetime.end.p0(i64 4, ptr nonnull %7) #4
  call void @llvm.lifetime.end.p0(i64 16, ptr nonnull %6) #4
  br label %.loopexit

63:                                               ; preds = %57, %59, %49
  %64 = call i32 @CBB_flush(ptr noundef %1) #4
  %.026 = icmp eq i32 %64, 0
  call void @llvm.lifetime.end.p0(i64 32, ptr nonnull %9) #4
  call void @llvm.lifetime.end.p0(i64 8, ptr nonnull %8) #4
  call void @llvm.lifetime.end.p0(i64 4, ptr nonnull %7) #4
  call void @llvm.lifetime.end.p0(i64 16, ptr nonnull %6) #4
  br i1 %.026, label %.loopexit, label %12

65:                                               ; preds = %12
  %66 = xor i8 %3, 1
  %67 = zext nneg i8 %66 to i32
  br label %.loopexit

.loopexit:                                        ; preds = %63, %.thread, %5, %65
  %.031 = phi i32 [ %67, %65 ], [ 0, %5 ], [ %.233.ph, %.thread ], [ 0, %63 ]
  ret i32 %.031
}